target datalayout = "e-m:e-p270:32:32-p271:32:32-p272:64:64-i64:64-i128:128-f80:128-n8:16:32:64-S128"
target triple = "x86_64-pc-linux-gnu"

%struct.CVodeMemRec = type { ptr, double, ptr, ptr, i32, i32, double, double, ptr, i32, i32, ptr, ptr, i32, i32, ptr, i32, i32, double, double, ptr, i32, i32, i32, i32, ptr, ptr, ptr, i32, i32, ptr, ptr, ptr, i32, double, i32, i32, double, ptr, ptr, ptr, i32, ptr, ptr, i32, i32, i32, double, ptr, ptr, ptr, [13 x ptr], ptr, ptr, ptr, ptr, ptr, ptr, ptr, ptr, ptr, [13 x ptr], ptr, ptr, ptr, ptr, [13 x ptr], ptr, ptr, ptr, ptr, ptr, i32, [13 x ptr], ptr, ptr, ptr, ptr, ptr, i32, i32, double, i32, i32, i32, i32, i32, double, double, double, double, double, double, double, double, [14 x double], [6 x double], [13 x double], double, double, double, double, double, double, double, double, i32, double, double, i32, double, double, ptr, i32, i64, i32, i32, i32, double, double, double, double, double, double, double, double, double, double, double, double, i64, i32, i64, i64, i64, i64, i64, i64, i64, i64, i64, ptr, i64, i64, ptr, i64, i64, ptr, i64, i64, i64, i64, i64, i64, i32, double, double, double, i64, i64, i64, i64, i64, i64, ptr, i32, ptr, i32, ptr, i32, ptr, i32, i32, i64, i32, ptr, i32, ptr, ptr, ptr, ptr, ptr, ptr, i32, i32, ptr, ptr, ptr, ptr, ptr, i64, double, i32, i32, i64, double, double, double, i32, i32, double, i32, i32, i32, i32, i32, i32, i32, i32, i32, i32, i32, i32, i32, i32, i32, i32, ptr, i64, i32, [6 x [4 x double]], i32, i64, ptr, i32, ptr, ptr, double, double, double, ptr, ptr, ptr, double, double, i32, i32, i64, ptr, i32, ptr, i32, i32, [13 x double], ptr, ptr, ptr, i32, ptr, i32 }

@.str = private unnamed_addr constant [115 x i8] c"generated/home/dtcxzyw/WorkSpace/Projects/compilers/llvm-opt-benchmark/bench/sundials/sundials/src/cvodes/cvodes.c\00", align 1
@.str.4 = private unnamed_addr constant [26 x i8] c"cvode_mem = NULL illegal.\00", align 1
@.str.5 = private unnamed_addr constant [19 x i8] c"y0 = NULL illegal.\00", align 1
@__func__.CVodeReInit = private unnamed_addr constant [12 x i8] c"CVodeReInit\00", align 1
@.str.10 = private unnamed_addr constant [34 x i8] c"Attempt to call before CVodeInit.\00", align 1

; Function Attrs: nounwind uwtable
define i32 @CVodeReInit(ptr noundef %0, double noundef %1, ptr noundef %2) #0 {
  %4 = alloca i32, align 4
  %5 = alloca ptr, align 8
  %6 = alloca double, align 8
  %7 = alloca ptr, align 8
  %8 = alloca ptr, align 8
  %9 = alloca i32, align 4
  %10 = alloca i32, align 4
  %11 = alloca i32, align 4
  store ptr %0, ptr %5, align 8, !tbaa !153
  store double %1, ptr %6, align 8, !tbaa !150
  store ptr %2, ptr %7, align 8, !tbaa !151
  call void @llvm.lifetime.start.p0(i64 8, ptr %8) #10
  call void @llvm.lifetime.start.p0(i64 4, ptr %9) #10
  call void @llvm.lifetime.start.p0(i64 4, ptr %10) #10
  %12 = load ptr, ptr %5, align 8, !tbaa !153
  %13 = icmp eq ptr %12, null
  br i1 %13, label %14, label %15

14:                                               ; preds = %3
  call void (ptr, i32, i32, ptr, ptr, ptr, ...) @cvProcessError(ptr noundef null, i32 noundef -21, i32 noundef 896, ptr noundef @__func__.CVodeReInit, ptr noundef @.str, ptr noundef @.str.4)
  store i32 -21, ptr %4, align 4
  store i32 1, ptr %11, align 4
  br label %117

15:                                               ; preds = %3
  %16 = load ptr, ptr %5, align 8, !tbaa !153
  store ptr %16, ptr %8, align 8, !tbaa !10
  %17 = load ptr, ptr %8, align 8, !tbaa !10
  %18 = getelementptr inbounds nuw %struct.CVodeMemRec, ptr %17, i32 0, i32 207
  %19 = load i32, ptr %18, align 8, !tbaa !113
  %20 = icmp eq i32 %19, 0
  br i1 %20, label %21, label %23

21:                                               ; preds = %15
  %22 = load ptr, ptr %8, align 8, !tbaa !10
  call void (ptr, i32, i32, ptr, ptr, ptr, ...) @cvProcessError(ptr noundef %22, i32 noundef -23, i32 noundef 907, ptr noundef @__func__.CVodeReInit, ptr noundef @.str, ptr noundef @.str.10)
  store i32 -23, ptr %4, align 4
  store i32 1, ptr %11, align 4
  br label %117

23:                                               ; preds = %15
  %24 = load ptr, ptr %7, align 8, !tbaa !151
  %25 = icmp eq ptr %24, null
  br i1 %25, label %26, label %28

26:                                               ; preds = %23
  %27 = load ptr, ptr %8, align 8, !tbaa !10
  call void (ptr, i32, i32, ptr, ptr, ptr, ...) @cvProcessError(ptr noundef %27, i32 noundef -22, i32 noundef 917, ptr noundef @__func__.CVodeReInit, ptr noundef @.str, ptr noundef @.str.5)
  store i32 -22, ptr %4, align 4
  store i32 1, ptr %11, align 4
  br label %117

28:                                               ; preds = %23
  %29 = load double, ptr %6, align 8, !tbaa !150
  %30 = load ptr, ptr %8, align 8, !tbaa !10
  %31 = getelementptr inbounds nuw %struct.CVodeMemRec, ptr %30, i32 0, i32 93
  store double %29, ptr %31, align 8, !tbaa !167
  %32 = load ptr, ptr %8, align 8, !tbaa !10
  %33 = getelementptr inbounds nuw %struct.CVodeMemRec, ptr %32, i32 0, i32 82
  store i32 1, ptr %33, align 8, !tbaa !169
  %34 = load ptr, ptr %8, align 8, !tbaa !10
  %35 = getelementptr inbounds nuw %struct.CVodeMemRec, ptr %34, i32 0, i32 86
  store i32 2, ptr %35, align 8, !tbaa !170
  %36 = load ptr, ptr %8, align 8, !tbaa !10
  %37 = getelementptr inbounds nuw %struct.CVodeMemRec, ptr %36, i32 0, i32 86
  %38 = load i32, ptr %37, align 8, !tbaa !170
  %39 = load ptr, ptr %8, align 8, !tbaa !10
  %40 = getelementptr inbounds nuw %struct.CVodeMemRec, ptr %39, i32 0, i32 85
  store i32 %38, ptr %40, align 4, !tbaa !171
  %41 = load ptr, ptr %8, align 8, !tbaa !10
  %42 = getelementptr inbounds nuw %struct.CVodeMemRec, ptr %41, i32 0, i32 123
  %43 = load double, ptr %42, align 8, !tbaa !44
  %44 = load ptr, ptr %8, align 8, !tbaa !10
  %45 = getelementptr inbounds nuw %struct.CVodeMemRec, ptr %44, i32 0, i32 120
  store double %43, ptr %45, align 8, !tbaa !172
  %46 = load ptr, ptr %8, align 8, !tbaa !10
  %47 = getelementptr inbounds nuw %struct.CVodeMemRec, ptr %46, i32 0, i32 193
  store i32 0, ptr %47, align 4, !tbaa !173
  %48 = load ptr, ptr %8, align 8, !tbaa !10
  %49 = getelementptr inbounds nuw %struct.CVodeMemRec, ptr %48, i32 0, i32 196
  store double 0.000000e+00, ptr %49, align 8, !tbaa !174
  %50 = load ptr, ptr %8, align 8, !tbaa !10
  %51 = getelementptr inbounds nuw %struct.CVodeMemRec, ptr %50, i32 0, i32 200
  store double 1.000000e+00, ptr %51, align 8, !tbaa !175
  %52 = load ptr, ptr %8, align 8, !tbaa !10
  %53 = getelementptr inbounds nuw %struct.CVodeMemRec, ptr %52, i32 0, i32 192
  store i32 0, ptr %53, align 8, !tbaa !181
  %54 = load ptr, ptr %7, align 8, !tbaa !151
  %55 = load ptr, ptr %8, align 8, !tbaa !10
  %56 = getelementptr inbounds nuw %struct.CVodeMemRec, ptr %55, i32 0, i32 51
  %57 = getelementptr inbounds [13 x ptr], ptr %56, i64 0, i64 0
  %58 = load ptr, ptr %57, align 8, !tbaa !151
  call void @N_VScale(double noundef 1.000000e+00, ptr noundef %54, ptr noundef %58)
  %59 = load ptr, ptr %8, align 8, !tbaa !10
  %60 = getelementptr inbounds nuw %struct.CVodeMemRec, ptr %59, i32 0, i32 132
  store i64 0, ptr %60, align 8, !tbaa !182
  %61 = load ptr, ptr %8, align 8, !tbaa !10
  %62 = getelementptr inbounds nuw %struct.CVodeMemRec, ptr %61, i32 0, i32 133
  store i64 0, ptr %62, align 8, !tbaa !183
  %63 = load ptr, ptr %8, align 8, !tbaa !10
  %64 = getelementptr inbounds nuw %struct.CVodeMemRec, ptr %63, i32 0, i32 139
  store i64 0, ptr %64, align 8, !tbaa !184
  %65 = load ptr, ptr %8, align 8, !tbaa !10
  %66 = getelementptr inbounds nuw %struct.CVodeMemRec, ptr %65, i32 0, i32 148
  store i64 0, ptr %66, align 8, !tbaa !185
  %67 = load ptr, ptr %8, align 8, !tbaa !10
  %68 = getelementptr inbounds nuw %struct.CVodeMemRec, ptr %67, i32 0, i32 142
  store i64 0, ptr %68, align 8, !tbaa !186
  %69 = load ptr, ptr %8, align 8, !tbaa !10
  %70 = getelementptr inbounds nuw %struct.CVodeMemRec, ptr %69, i32 0, i32 145
  store i64 0, ptr %70, align 8, !tbaa !187
  %71 = load ptr, ptr %8, align 8, !tbaa !10
  %72 = getelementptr inbounds nuw %struct.CVodeMemRec, ptr %71, i32 0, i32 152
  store i64 0, ptr %72, align 8, !tbaa !188
  %73 = load ptr, ptr %8, align 8, !tbaa !10
  %74 = getelementptr inbounds nuw %struct.CVodeMemRec, ptr %73, i32 0, i32 154
  store i32 0, ptr %74, align 8, !tbaa !189
  %75 = load ptr, ptr %8, align 8, !tbaa !10
  %76 = getelementptr inbounds nuw %struct.CVodeMemRec, ptr %75, i32 0, i32 194
  store i64 0, ptr %76, align 8, !tbaa !190
  %77 = load ptr, ptr %8, align 8, !tbaa !10
  %78 = getelementptr inbounds nuw %struct.CVodeMemRec, ptr %77, i32 0, i32 221
  store i32 0, ptr %78, align 8, !tbaa !191
  %79 = load ptr, ptr %8, align 8, !tbaa !10
  %80 = getelementptr inbounds nuw %struct.CVodeMemRec, ptr %79, i32 0, i32 237
  store i64 0, ptr %80, align 8, !tbaa !192
  %81 = load ptr, ptr %8, align 8, !tbaa !10
  %82 = getelementptr inbounds nuw %struct.CVodeMemRec, ptr %81, i32 0, i32 236
  store i32 0, ptr %82, align 4, !tbaa !193
  %83 = load ptr, ptr %8, align 8, !tbaa !10
  %84 = getelementptr inbounds nuw %struct.CVodeMemRec, ptr %83, i32 0, i32 195
  store double 0.000000e+00, ptr %84, align 8, !tbaa !194
  %85 = load ptr, ptr %8, align 8, !tbaa !10
  %86 = getelementptr inbounds nuw %struct.CVodeMemRec, ptr %85, i32 0, i32 90
  store double 0.000000e+00, ptr %86, align 8, !tbaa !195
  %87 = load ptr, ptr %8, align 8, !tbaa !10
  %88 = getelementptr inbounds nuw %struct.CVodeMemRec, ptr %87, i32 0, i32 84
  store i32 0, ptr %88, align 8, !tbaa !196
  %89 = load ptr, ptr %8, align 8, !tbaa !10
  %90 = getelementptr inbounds nuw %struct.CVodeMemRec, ptr %89, i32 0, i32 222
  store i64 0, ptr %90, align 8, !tbaa !197
  store i32 1, ptr %9, align 4, !tbaa !3
  br label %91

91:                                               ; preds = %113, %28
  %92 = load i32, ptr %9, align 4, !tbaa !3
  %93 = icmp sle i32 %92, 5
  br i1 %93, label %94, label %116

94:                                               ; preds = %91
  store i32 1, ptr %10, align 4, !tbaa !3
  br label %95

95:                                               ; preds = %109, %94
  %96 = load i32, ptr %10, align 4, !tbaa !3
  %97 = icmp sle i32 %96, 3
  br i1 %97, label %98, label %112

98:                                               ; preds = %95
  %99 = load ptr, ptr %8, align 8, !tbaa !10
  %100 = getelementptr inbounds nuw %struct.CVodeMemRec, ptr %99, i32 0, i32 220
  %101 = load i32, ptr %9, align 4, !tbaa !3
  %102 = sub nsw i32 %101, 1
  %103 = sext i32 %102 to i64
  %104 = getelementptr inbounds [6 x [4 x double]], ptr %100, i64 0, i64 %103
  %105 = load i32, ptr %10, align 4, !tbaa !3
  %106 = sub nsw i32 %105, 1
  %107 = sext i32 %106 to i64
  %108 = getelementptr inbounds [4 x double], ptr %104, i64 0, i64 %107
  store double 0.000000e+00, ptr %108, align 8, !tbaa !150
  br label %109

109:                                              ; preds = %98
  %110 = load i32, ptr %10, align 4, !tbaa !3
  %111 = add nsw i32 %110, 1
  store i32 %111, ptr %10, align 4, !tbaa !3
  br label %95

112:                                              ; preds = %95
  br label %113

113:                                              ; preds = %112
  %114 = load i32, ptr %9, align 4, !tbaa !3
  %115 = add nsw i32 %114, 1
  store i32 %115, ptr %9, align 4, !tbaa !3
  br label %91

116:                                              ; preds = %91
  store i32 0, ptr %4, align 4
  store i32 1, ptr %11, align 4
  br label %117

117:                                              ; preds = %116, %26, %21, %14
  call void @llvm.lifetime.end.p0(i64 4, ptr %10) #10
  call void @llvm.lifetime.end.p0(i64 4, ptr %9) #10
  call void @llvm.lifetime.end.p0(i64 8, ptr %8) #10
  %118 = load i32, ptr %4, align 4
  ret i32 %118
}