; Function Attrs: nounwind uwtable
define range(i32 -23, 1) i32 @CVodeReInit(ptr noundef captures(address_is_null) %0, double noundef %1, ptr noundef %2) local_unnamed_addr #0 {
  %4 = icmp eq ptr %0, null
  br i1 %4, label %5, label %6

5:                                                ; preds = %3
  tail call void (ptr, i32, i32, ptr, ptr, ptr, ...) @cvProcessError(ptr noundef null, i32 noundef -21, i32 noundef 896, ptr noundef nonnull @__func__.CVodeReInit, ptr noundef nonnull @.str, ptr noundef nonnull @.str.4)
  br label %.loopexit

6:                                                ; preds = %3
  %7 = getelementptr inbounds nuw i8, ptr %0, i64 2120
  %8 = load i32, ptr %7, align 8, !tbaa !128
  %9 = icmp eq i32 %8, 0
  br i1 %9, label %10, label %11

10:                                               ; preds = %6
  tail call void (ptr, i32, i32, ptr, ptr, ptr, ...) @cvProcessError(ptr noundef nonnull %0, i32 noundef -23, i32 noundef 907, ptr noundef nonnull @__func__.CVodeReInit, ptr noundef nonnull @.str, ptr noundef nonnull @.str.10)
  br label %.loopexit

11:                                               ; preds = %6
  %12 = icmp eq ptr %2, null
  br i1 %12, label %13, label %14

13:                                               ; preds = %11
  tail call void (ptr, i32, i32, ptr, ptr, ptr, ...) @cvProcessError(ptr noundef nonnull %0, i32 noundef -22, i32 noundef 917, ptr noundef nonnull @__func__.CVodeReInit, ptr noundef nonnull @.str, ptr noundef nonnull @.str.5)
  br label %.loopexit

14:                                               ; preds = %11
  %15 = getelementptr inbounds nuw i8, ptr %0, i64 1032
  store double %1, ptr %15, align 8, !tbaa !106
  %16 = getelementptr inbounds nuw i8, ptr %0, i64 960
  store i32 1, ptr %16, align 8, !tbaa !108
  %17 = getelementptr inbounds nuw i8, ptr %0, i64 976
  store i32 2, ptr %17, align 8, !tbaa !109
  %18 = getelementptr inbounds nuw i8, ptr %0, i64 972
  store i32 2, ptr %18, align 4, !tbaa !110
  %19 = getelementptr inbounds nuw i8, ptr %0, i64 1504
  %20 = load double, ptr %19, align 8, !tbaa !27
  %21 = getelementptr inbounds nuw i8, ptr %0, i64 1480
  store double %20, ptr %21, align 8, !tbaa !111
  %22 = getelementptr inbounds nuw i8, ptr %0, i64 2044
  store i32 0, ptr %22, align 4, !tbaa !112
  %23 = getelementptr inbounds nuw i8, ptr %0, i64 2064
  store double 0.000000e+00, ptr %23, align 8, !tbaa !113
  %24 = getelementptr inbounds nuw i8, ptr %0, i64 2088
  store double 1.000000e+00, ptr %24, align 8, !tbaa !114
  %25 = getelementptr inbounds nuw i8, ptr %0, i64 2040
  store i32 0, ptr %25, align 8, !tbaa !115
  %26 = getelementptr inbounds nuw i8, ptr %0, i64 336
  %27 = load ptr, ptr %26, align 8, !tbaa !65
  tail call void @N_VScale(double noundef 1.000000e+00, ptr noundef nonnull %2, ptr noundef %27) #13
  %28 = getelementptr inbounds nuw i8, ptr %0, i64 1576
  %29 = getelementptr inbounds nuw i8, ptr %0, i64 1632
  store i64 0, ptr %29, align 8, !tbaa !116
  %30 = getelementptr inbounds nuw i8, ptr %0, i64 1704
  store i64 0, ptr %30, align 8, !tbaa !117
  %31 = getelementptr inbounds nuw i8, ptr %0, i64 1656
  store i64 0, ptr %31, align 8, !tbaa !118
  %32 = getelementptr inbounds nuw i8, ptr %0, i64 1680
  store i64 0, ptr %32, align 8, !tbaa !119
  %33 = getelementptr inbounds nuw i8, ptr %0, i64 1736
  store i64 0, ptr %33, align 8, !tbaa !120
  %34 = getelementptr inbounds nuw i8, ptr %0, i64 1752
  store i32 0, ptr %34, align 8, !tbaa !121
  %35 = getelementptr inbounds nuw i8, ptr %0, i64 2048
  %36 = getelementptr inbounds nuw i8, ptr %0, i64 2376
  store i32 0, ptr %36, align 8, !tbaa !122
  %37 = getelementptr inbounds nuw i8, ptr %0, i64 2496
  store i64 0, ptr %37, align 8, !tbaa !123
  %38 = getelementptr inbounds nuw i8, ptr %0, i64 2492
  store i32 0, ptr %38, align 4, !tbaa !124
  %39 = getelementptr inbounds nuw i8, ptr %0, i64 1008
  store double 0.000000e+00, ptr %39, align 8, !tbaa !125
  %40 = getelementptr inbounds nuw i8, ptr %0, i64 968
  store i32 0, ptr %40, align 8, !tbaa !126
  %41 = getelementptr inbounds nuw i8, ptr %0, i64 2384
  store i64 0, ptr %41, align 8, !tbaa !127
  tail call void @llvm.memset.p0.i64(ptr noundef nonnull align 8 dereferenceable(16) %28, i8 0, i64 16, i1 false)
  tail call void @llvm.memset.p0.i64(ptr noundef nonnull align 8 dereferenceable(16) %35, i8 0, i64 16, i1 false)
  %invariant.gep = getelementptr i8, ptr %0, i64 2184
  br label %.preheader

.preheader:                                       ; preds = %14, %.preheader
  %indvar = phi i64 [ 0, %14 ], [ %indvar.next, %.preheader ]
  %42 = shl nuw nsw i64 %indvar, 5
  %gep = getelementptr i8, ptr %invariant.gep, i64 %42
  tail call void @llvm.memset.p0.i64(ptr noundef nonnull align 8 dereferenceable(24) %gep, i8 0, i64 24, i1 false), !tbaa !69
  %indvar.next = add nuw nsw i64 %indvar, 1
  %exitcond.not = icmp eq i64 %indvar.next, 5
  br i1 %exitcond.not, label %.loopexit, label %.preheader

.loopexit:                                        ; preds = %.preheader, %13, %10, %5
  %.044 = phi i32 [ -21, %5 ], [ -23, %10 ], [ -22, %13 ], [ 0, %.preheader ]
  ret i32 %.044
}